target datalayout = "e-m:e-p270:32:32-p271:32:32-p272:64:64-i64:64-i128:128-f80:128-n8:16:32:64-S128"
target triple = "x86_64-pc-linux-gnu"

%union.pthread_mutex_t = type { %struct.__pthread_mutex_s }
%struct.__pthread_mutex_s = type { i32, i32, i32, i32, i32, i16, i16, %struct.__pthread_internal_list }
%struct.__pthread_internal_list = type { ptr, ptr }
%union.pthread_cond_t = type { %struct.__pthread_cond_s }
%struct.__pthread_cond_s = type { %union.__atomic_wide_counter, %union.__atomic_wide_counter, [2 x i32], [2 x i32], i32, i32, [2 x i32] }
%union.__atomic_wide_counter = type { i64 }
%struct.eio_obj = type { i32, ptr, ptr, i8 }
%struct.timespec = type { i64, i64 }

@socket_name = internal global ptr null, align 8
@.str.17 = private unnamed_addr constant [28 x i8] c"Called _msg_socket_readable\00", align 1
@.str.18 = private unnamed_addr constant [18 x i8] c"  false, shutdown\00", align 1
@.str.19 = private unnamed_addr constant [8 x i8] c"  false\00", align 1
@.str.20 = private unnamed_addr constant [34 x i8] c"Unable to close domain socket: %m\00", align 1
@.str.21 = private unnamed_addr constant [40 x i8] c"Unable to unlink domain socket `%s`: %m\00", align 1
@message_lock = internal global %union.pthread_mutex_t zeroinitializer, align 8
@.str.22 = private unnamed_addr constant [29 x i8] c"%s: pthread_mutex_lock(): %m\00", align 1
@__func__._wait_for_connections = private unnamed_addr constant [22 x i8] c"_wait_for_connections\00", align 1
@message_connections = internal global i32 0, align 4
@message_cond = internal global %union.pthread_cond_t zeroinitializer, align 8
@.str.23 = private unnamed_addr constant [31 x i8] c"%s: pthread_mutex_unlock(): %m\00", align 1

; Function Attrs: nounwind uwtable
define internal void @_wait_for_connections() #0 {
  %1 = alloca %struct.timespec, align 8
  %2 = alloca i32, align 4
  %3 = alloca i32, align 4
  %4 = alloca i32, align 4
  call void @llvm.lifetime.start.p0(i64 16, ptr %1) #10
  call void @llvm.memset.p0.i64(ptr align 8 %1, i8 0, i64 16, i1 false)
  call void @llvm.lifetime.start.p0(i64 4, ptr %2) #10
  store i32 0, ptr %2, align 4
  br label %5

5:                                                ; preds = %0
  call void @llvm.lifetime.start.p0(i64 4, ptr %3) #10
  %6 = call i32 @pthread_mutex_lock(ptr noundef @message_lock) #10
  store i32 %6, ptr %3, align 4
  %7 = load i32, ptr %3, align 4
  %8 = icmp ne i32 %7, 0
  br i1 %8, label %9, label %12

9:                                                ; preds = %5
  %10 = load i32, ptr %3, align 4
  %11 = call ptr @__errno_location() #11
  store i32 %10, ptr %11, align 4
  call void (ptr, ...) @fatal_abort(ptr noundef @.str.22, ptr noundef @__func__._wait_for_connections) #12
  unreachable

12:                                               ; preds = %5
  call void @llvm.lifetime.end.p0(i64 4, ptr %3) #10
  br label %13

13:                                               ; preds = %12
  br label %14

14:                                               ; preds = %13
  %15 = call i64 @time(ptr noundef null) #10
  %16 = add nsw i64 %15, 3
  %17 = getelementptr inbounds nuw %struct.timespec, ptr %1, i32 0, i32 0
  store i64 %16, ptr %17, align 8
  br label %18

18:                                               ; preds = %26, %14
  %19 = load i32, ptr @message_connections, align 4
  %20 = icmp sgt i32 %19, 0
  br i1 %20, label %21, label %24

21:                                               ; preds = %18
  %22 = load i32, ptr %2, align 4
  %23 = icmp eq i32 %22, 0
  br label %24

24:                                               ; preds = %21, %18
  %25 = phi i1 [ false, %18 ], [ %23, %21 ]
  br i1 %25, label %26, label %28

26:                                               ; preds = %24
  %27 = call i32 @pthread_cond_timedwait(ptr noundef @message_cond, ptr noundef @message_lock, ptr noundef %1)
  store i32 %27, ptr %2, align 4
  br label %18, !llvm.loop !14

28:                                               ; preds = %24
  br label %29

29:                                               ; preds = %28
  call void @llvm.lifetime.start.p0(i64 4, ptr %4) #10
  %30 = call i32 @pthread_mutex_unlock(ptr noundef @message_lock) #10
  store i32 %30, ptr %4, align 4
  %31 = load i32, ptr %4, align 4
  %32 = icmp ne i32 %31, 0
  br i1 %32, label %33, label %36

33:                                               ; preds = %29
  %34 = load i32, ptr %4, align 4
  %35 = call ptr @__errno_location() #11
  store i32 %34, ptr %35, align 4
  call void (ptr, ...) @fatal_abort(ptr noundef @.str.23, ptr noundef @__func__._wait_for_connections) #12
  unreachable

36:                                               ; preds = %29
  call void @llvm.lifetime.end.p0(i64 4, ptr %4) #10
  br label %37

37:                                               ; preds = %36
  br label %38

38:                                               ; preds = %37
  call void @llvm.lifetime.end.p0(i64 4, ptr %2) #10
  call void @llvm.lifetime.end.p0(i64 16, ptr %1) #10
  ret void
}

; Function Attrs: nounwind uwtable
define internal void @_domain_socket_destroy(i32 noundef %0) #0 {
  %2 = alloca i32, align 4
  store i32 %0, ptr %2, align 4
  %3 = load i32, ptr %2, align 4
  %4 = call i32 @close(i32 noundef %3)
  %5 = icmp slt i32 %4, 0
  br i1 %5, label %6, label %8

6:                                                ; preds = %1
  %7 = call i32 (ptr, ...) @error(ptr noundef @.str.20)
  br label %8

8:                                                ; preds = %6, %1
  %9 = load ptr, ptr @socket_name, align 8
  %10 = call i32 @unlink(ptr noundef %9) #10
  %11 = icmp eq i32 %10, -1
  br i1 %11, label %12, label %15

12:                                               ; preds = %8
  %13 = load ptr, ptr @socket_name, align 8
  %14 = call i32 (ptr, ...) @error(ptr noundef @.str.21, ptr noundef %13)
  br label %15

15:                                               ; preds = %12, %8
  ret void
}

; Function Attrs: nounwind uwtable
define internal zeroext i1 @_msg_socket_readable(ptr noundef %0) #0 {
  %2 = alloca i1, align 1
  %3 = alloca ptr, align 8
  store ptr %0, ptr %3, align 8
  br label %4

4:                                                ; preds = %1
  br label %5

5:                                                ; preds = %4
  %6 = call i32 @get_log_level()
  %7 = icmp sge i32 %6, 7
  br i1 %7, label %8, label %9

8:                                                ; preds = %5
  call void (i32, ptr, ...) @log_var(i32 noundef 7, ptr noundef @.str.17)
  br label %9

9:                                                ; preds = %8, %5
  br label %10

10:                                               ; preds = %9
  br label %11

11:                                               ; preds = %10
  %12 = load ptr, ptr %3, align 8
  %13 = getelementptr inbounds nuw %struct.eio_obj, ptr %12, i32 0, i32 3
  %14 = load i8, ptr %13, align 8, !range !8, !noundef !9
  %15 = trunc i8 %14 to i1
  %16 = zext i1 %15 to i32
  %17 = icmp eq i32 %16, 1
  br i1 %17, label %18, label %47

18:                                               ; preds = %11
  %19 = load ptr, ptr %3, align 8
  %20 = getelementptr inbounds nuw %struct.eio_obj, ptr %19, i32 0, i32 0
  %21 = load i32, ptr %20, align 8
  %22 = icmp ne i32 %21, -1
  br i1 %22, label %23, label %37

23:                                               ; preds = %18
  br label %24

24:                                               ; preds = %23
  br label %25

25:                                               ; preds = %24
  %26 = call i32 @get_log_level()
  %27 = icmp sge i32 %26, 6
  br i1 %27, label %28, label %29

28:                                               ; preds = %25
  call void (i32, ptr, ...) @log_var(i32 noundef 6, ptr noundef @.str.18)
  br label %29

29:                                               ; preds = %28, %25
  br label %30

30:                                               ; preds = %29
  br label %31

31:                                               ; preds = %30
  %32 = load ptr, ptr %3, align 8
  %33 = getelementptr inbounds nuw %struct.eio_obj, ptr %32, i32 0, i32 0
  %34 = load i32, ptr %33, align 8
  call void @_domain_socket_destroy(i32 noundef %34)
  %35 = load ptr, ptr %3, align 8
  %36 = getelementptr inbounds nuw %struct.eio_obj, ptr %35, i32 0, i32 0
  store i32 -1, ptr %36, align 8
  call void @_wait_for_connections()
  br label %46

37:                                               ; preds = %18
  br label %38

38:                                               ; preds = %37
  br label %39

39:                                               ; preds = %38
  %40 = call i32 @get_log_level()
  %41 = icmp sge i32 %40, 6
  br i1 %41, label %42, label %43

42:                                               ; preds = %39
  call void (i32, ptr, ...) @log_var(i32 noundef 6, ptr noundef @.str.19)
  br label %43

43:                                               ; preds = %42, %39
  br label %44

44:                                               ; preds = %43
  br label %45

45:                                               ; preds = %44
  br label %46

46:                                               ; preds = %45, %31
  store i1 false, ptr %2, align 1
  br label %48

47:                                               ; preds = %11
  store i1 true, ptr %2, align 1
  br label %48

48:                                               ; preds = %47, %46
  %49 = load i1, ptr %2, align 1
  ret i1 %49
}