; Function Attrs: nounwind uwtable
define internal noundef zeroext i1 @_msg_socket_readable(ptr noundef captures(none) %0) #0 {
  %2 = alloca %struct.timespec, align 8
  %3 = tail call i32 @get_log_level() #13
  %4 = icmp sgt i32 %3, 6
  br i1 %4, label %5, label %6

5:                                                ; preds = %1
  tail call void (i32, ptr, ...) @log_var(i32 noundef 7, ptr noundef nonnull @.str.17) #13
  br label %6

6:                                                ; preds = %5, %1
  %7 = getelementptr inbounds nuw i8, ptr %0, i64 24
  %8 = load i8, ptr %7, align 8, !range !8, !noundef !9
  %9 = trunc nuw i8 %8 to i1
  br i1 %9, label %10, label %48

10:                                               ; preds = %6
  %11 = load i32, ptr %0, align 8
  %.not = icmp eq i32 %11, -1
  %12 = tail call i32 @get_log_level() #13
  %13 = icmp sgt i32 %12, 5
  br i1 %.not, label %46, label %14

14:                                               ; preds = %10
  br i1 %13, label %15, label %16

15:                                               ; preds = %14
  tail call void (i32, ptr, ...) @log_var(i32 noundef 6, ptr noundef nonnull @.str.18) #13
  br label %16

16:                                               ; preds = %15, %14
  %17 = load i32, ptr %0, align 8
  %18 = tail call i32 @close(i32 noundef %17) #13
  %19 = icmp slt i32 %18, 0
  br i1 %19, label %20, label %22

20:                                               ; preds = %16
  %21 = tail call i32 (ptr, ...) @error(ptr noundef nonnull @.str.20) #13
  br label %22

22:                                               ; preds = %20, %16
  %23 = load ptr, ptr @socket_name, align 8
  %24 = tail call i32 @unlink(ptr noundef %23) #13
  %25 = icmp eq i32 %24, -1
  br i1 %25, label %26, label %_domain_socket_destroy.exit

26:                                               ; preds = %22
  %27 = load ptr, ptr @socket_name, align 8
  %28 = tail call i32 (ptr, ...) @error(ptr noundef nonnull @.str.21, ptr noundef %27) #13
  br label %_domain_socket_destroy.exit

_domain_socket_destroy.exit:                      ; preds = %22, %26
  store i32 -1, ptr %0, align 8
  call void @llvm.lifetime.start.p0(i64 16, ptr nonnull %2) #13
  %29 = getelementptr inbounds nuw i8, ptr %2, i64 8
  store i64 0, ptr %29, align 8
  %30 = tail call i32 @pthread_mutex_lock(ptr noundef nonnull @message_lock) #13
  %.not.i = icmp eq i32 %30, 0
  br i1 %.not.i, label %33, label %31

31:                                               ; preds = %_domain_socket_destroy.exit
  %32 = tail call ptr @__errno_location() #14
  store i32 %30, ptr %32, align 4
  tail call void (ptr, ...) @fatal_abort(ptr noundef nonnull @.str.22, ptr noundef nonnull @__func__._wait_for_connections) #15
  unreachable

33:                                               ; preds = %_domain_socket_destroy.exit
  %34 = tail call i64 @time(ptr noundef null) #13
  %35 = add nsw i64 %34, 3
  store i64 %35, ptr %2, align 8
  %36 = load i32, ptr @message_connections, align 4
  %37 = icmp sgt i32 %36, 0
  br i1 %37, label %.lr.ph.i, label %._crit_edge.i

.lr.ph.i:                                         ; preds = %33, %.lr.ph.i
  %38 = call i32 @pthread_cond_timedwait(ptr noundef nonnull @message_cond, ptr noundef nonnull @message_lock, ptr noundef nonnull %2) #13
  %39 = load i32, ptr @message_connections, align 4
  %40 = icmp sgt i32 %39, 0
  %41 = icmp eq i32 %38, 0
  %42 = select i1 %40, i1 %41, i1 false
  br i1 %42, label %.lr.ph.i, label %._crit_edge.i, !llvm.loop !10

._crit_edge.i:                                    ; preds = %.lr.ph.i, %33
  %43 = call i32 @pthread_mutex_unlock(ptr noundef nonnull @message_lock) #13
  %.not7.i = icmp eq i32 %43, 0
  br i1 %.not7.i, label %_wait_for_connections.exit, label %44

44:                                               ; preds = %._crit_edge.i
  %45 = tail call ptr @__errno_location() #14
  store i32 %43, ptr %45, align 4
  call void (ptr, ...) @fatal_abort(ptr noundef nonnull @.str.23, ptr noundef nonnull @__func__._wait_for_connections) #15
  unreachable

_wait_for_connections.exit:                       ; preds = %._crit_edge.i
  call void @llvm.lifetime.end.p0(i64 16, ptr nonnull %2) #13
  br label %48

46:                                               ; preds = %10
  br i1 %13, label %47, label %48

47:                                               ; preds = %46
  tail call void (i32, ptr, ...) @log_var(i32 noundef 6, ptr noundef nonnull @.str.19) #13
  br label %48

48:                                               ; preds = %6, %_wait_for_connections.exit, %47, %46
  %.0 = xor i1 %9, true
  ret i1 %.0
}